target datalayout = "e-m:e-p270:32:32-p271:32:32-p272:64:64-i64:64-i128:128-f80:128-n8:16:32:64-S128"
target triple = "x86_64-pc-linux-gnu"

%"class.std::__cxx11::basic_string" = type { %"struct.std::__cxx11::basic_string<char>::_Alloc_hider", i64, %union.anon }
%"struct.std::__cxx11::basic_string<char>::_Alloc_hider" = type { ptr }
%union.anon = type { i64, [8 x i8] }
%"class.std::allocator" = type { i8 }
%struct.CvMat = type { i32, i32, ptr, i32, %union.anon.0, %union.anon.1, %union.anon.2 }
%union.anon.0 = type { ptr }
%union.anon.1 = type { i32 }
%union.anon.2 = type { i32 }
%struct.CvSparseMat = type { i32, i32, ptr, i32, ptr, ptr, i32, i32, i32, [32 x i32] }
%struct.CvScalar = type { [4 x double] }

@.str.1 = private unnamed_addr constant [118 x i8] c"generated/home/dtcxzyw/WorkSpace/Projects/compilers/llvm-opt-benchmark/bench/opencv/opencv/modules/core/src/array.cpp\00", align 1
@.str.42 = private unnamed_addr constant [22 x i8] c"index is out of range\00", align 1
@__func__.cvGet1D = private unnamed_addr constant [8 x i8] c"cvGet1D\00", align 1

; Function Attrs: mustprogress nounwind uwtable
define linkonce_odr hidden void @_ZNSt15__new_allocatorIcE10deallocateEPcm(ptr noundef nonnull align 1 dereferenceable(1) %0, ptr noundef %1, i64 noundef %2) #3 comdat align 2 {
  %4 = alloca ptr, align 8
  %5 = alloca ptr, align 8
  %6 = alloca i64, align 8
  store ptr %0, ptr %4, align 8, !tbaa !231
  store ptr %1, ptr %5, align 8, !tbaa !19
  store i64 %2, ptr %6, align 8, !tbaa !30
  %7 = load ptr, ptr %5, align 8, !tbaa !19
  call void @_ZdlPv(ptr noundef %7) #19
  ret void
}

; Function Attrs: mustprogress nounwind uwtable
define linkonce_odr hidden noundef ptr @_ZNSt19__ptr_traits_ptr_toIPKcS0_Lb0EE10pointer_toERS0_(ptr noundef nonnull align 1 dereferenceable(1) %0) #3 comdat align 2 {
  %2 = alloca ptr, align 8
  store ptr %0, ptr %2, align 8, !tbaa !19
  %3 = load ptr, ptr %2, align 8, !tbaa !19
  ret ptr %3
}

; Function Attrs: mustprogress uwtable
define linkonce_odr hidden void @_ZNSt16allocator_traitsISaIcEE10deallocateERS0_Pcm(ptr noundef nonnull align 1 dereferenceable(1) %0, ptr noundef %1, i64 noundef %2) #0 comdat align 2 {
  %4 = alloca ptr, align 8
  %5 = alloca ptr, align 8
  %6 = alloca i64, align 8
  store ptr %0, ptr %4, align 8, !tbaa !15
  store ptr %1, ptr %5, align 8, !tbaa !19
  store i64 %2, ptr %6, align 8, !tbaa !30
  %7 = load ptr, ptr %4, align 8, !tbaa !15
  %8 = load ptr, ptr %5, align 8, !tbaa !19
  %9 = load i64, ptr %6, align 8, !tbaa !30
  call void @_ZNSt15__new_allocatorIcE10deallocateEPcm(ptr noundef nonnull align 1 dereferenceable(1) %7, ptr noundef %8, i64 noundef %9)
  ret void
}

; Function Attrs: mustprogress nounwind uwtable
define available_externally noundef nonnull align 1 dereferenceable(1) ptr @_ZNSt7__cxx1112basic_stringIcSt11char_traitsIcESaIcEE16_M_get_allocatorEv(ptr noundef nonnull align 8 dereferenceable(32) %0) #3 align 2 {
  %2 = alloca ptr, align 8
  store ptr %0, ptr %2, align 8, !tbaa !17
  %3 = load ptr, ptr %2, align 8
  %4 = getelementptr inbounds nuw %"class.std::__cxx11::basic_string", ptr %3, i32 0, i32 0
  ret ptr %4
}

; Function Attrs: mustprogress nounwind uwtable
define available_externally noundef ptr @_ZNKSt7__cxx1112basic_stringIcSt11char_traitsIcESaIcEE13_M_local_dataEv(ptr noundef nonnull align 8 dereferenceable(32) %0) #3 align 2 {
  %2 = alloca ptr, align 8
  store ptr %0, ptr %2, align 8, !tbaa !17
  %3 = load ptr, ptr %2, align 8
  %4 = getelementptr inbounds nuw %"class.std::__cxx11::basic_string", ptr %3, i32 0, i32 2
  %5 = getelementptr inbounds [16 x i8], ptr %4, i64 0, i64 0
  %6 = call noundef ptr @_ZNSt19__ptr_traits_ptr_toIPKcS0_Lb0EE10pointer_toERS0_(ptr noundef nonnull align 1 dereferenceable(1) %5) #16
  ret ptr %6
}

; Function Attrs: mustprogress nounwind uwtable
define available_externally noundef ptr @_ZNKSt7__cxx1112basic_stringIcSt11char_traitsIcESaIcEE7_M_dataEv(ptr noundef nonnull align 8 dereferenceable(32) %0) #3 align 2 {
  %2 = alloca ptr, align 8
  store ptr %0, ptr %2, align 8, !tbaa !17
  %3 = load ptr, ptr %2, align 8
  %4 = getelementptr inbounds nuw %"class.std::__cxx11::basic_string", ptr %3, i32 0, i32 0
  %5 = getelementptr inbounds nuw %"struct.std::__cxx11::basic_string<char>::_Alloc_hider", ptr %4, i32 0, i32 0
  %6 = load ptr, ptr %5, align 8, !tbaa !236
  ret ptr %6
}

; Function Attrs: mustprogress nounwind uwtable
define available_externally void @_ZNSt7__cxx1112basic_stringIcSt11char_traitsIcESaIcEE10_M_destroyEm(ptr noundef nonnull align 8 dereferenceable(32) %0, i64 noundef %1) #3 align 2 personality ptr @__gxx_personality_v0 {
  %3 = alloca ptr, align 8
  %4 = alloca i64, align 8
  %5 = alloca ptr, align 8
  %6 = alloca i32, align 4
  store ptr %0, ptr %3, align 8, !tbaa !17
  store i64 %1, ptr %4, align 8, !tbaa !30
  %7 = load ptr, ptr %3, align 8
  %8 = invoke noundef nonnull align 1 dereferenceable(1) ptr @_ZNSt7__cxx1112basic_stringIcSt11char_traitsIcESaIcEE16_M_get_allocatorEv(ptr noundef nonnull align 8 dereferenceable(32) %7)
          to label %9 unwind label %14

9:                                                ; preds = %2
  %10 = call noundef ptr @_ZNKSt7__cxx1112basic_stringIcSt11char_traitsIcESaIcEE7_M_dataEv(ptr noundef nonnull align 8 dereferenceable(32) %7)
  %11 = load i64, ptr %4, align 8, !tbaa !30
  %12 = add i64 %11, 1
  invoke void @_ZNSt16allocator_traitsISaIcEE10deallocateERS0_Pcm(ptr noundef nonnull align 1 dereferenceable(1) %8, ptr noundef %10, i64 noundef %12)
          to label %13 unwind label %14

13:                                               ; preds = %9
  ret void

14:                                               ; preds = %9, %2
  %15 = landingpad { ptr, i32 }
          filter [0 x ptr] zeroinitializer
  %16 = extractvalue { ptr, i32 } %15, 0
  store ptr %16, ptr %5, align 8
  %17 = extractvalue { ptr, i32 } %15, 1
  store i32 %17, ptr %6, align 4
  br label %18

18:                                               ; preds = %14
  %19 = load ptr, ptr %5, align 8
  call void @__cxa_call_unexpected(ptr %19) #17
  unreachable
}

; Function Attrs: mustprogress uwtable
define available_externally noundef zeroext i1 @_ZNKSt7__cxx1112basic_stringIcSt11char_traitsIcESaIcEE11_M_is_localEv(ptr noundef nonnull align 8 dereferenceable(32) %0) #0 align 2 {
  %2 = alloca i1, align 1
  %3 = alloca ptr, align 8
  store ptr %0, ptr %3, align 8, !tbaa !17
  %4 = load ptr, ptr %3, align 8
  %5 = call noundef ptr @_ZNKSt7__cxx1112basic_stringIcSt11char_traitsIcESaIcEE7_M_dataEv(ptr noundef nonnull align 8 dereferenceable(32) %4)
  %6 = call noundef ptr @_ZNKSt7__cxx1112basic_stringIcSt11char_traitsIcESaIcEE13_M_local_dataEv(ptr noundef nonnull align 8 dereferenceable(32) %4)
  %7 = icmp eq ptr %5, %6
  br i1 %7, label %8, label %14

8:                                                ; preds = %1
  %9 = getelementptr inbounds nuw %"class.std::__cxx11::basic_string", ptr %4, i32 0, i32 1
  %10 = load i64, ptr %9, align 8, !tbaa !233
  %11 = icmp ugt i64 %10, 15
  br i1 %11, label %12, label %13

12:                                               ; preds = %8
  unreachable

13:                                               ; preds = %8
  store i1 true, ptr %2, align 1
  br label %15

14:                                               ; preds = %1
  store i1 false, ptr %2, align 1
  br label %15

15:                                               ; preds = %14, %13
  %16 = load i1, ptr %2, align 1
  ret i1 %16
}

; Function Attrs: noinline noreturn nounwind uwtable
define linkonce_odr hidden void @__clang_call_terminate(ptr noundef %0) #13 comdat {
  %2 = call ptr @__cxa_begin_catch(ptr %0) #16
  call void @_ZSt9terminatev() #18
  unreachable
}

; Function Attrs: mustprogress uwtable
define available_externally void @_ZNSt7__cxx1112basic_stringIcSt11char_traitsIcESaIcEE10_M_disposeEv(ptr noundef nonnull align 8 dereferenceable(32) %0) #0 align 2 {
  %2 = alloca ptr, align 8
  store ptr %0, ptr %2, align 8, !tbaa !17
  %3 = load ptr, ptr %2, align 8
  %4 = call noundef zeroext i1 @_ZNKSt7__cxx1112basic_stringIcSt11char_traitsIcESaIcEE11_M_is_localEv(ptr noundef nonnull align 8 dereferenceable(32) %3)
  br i1 %4, label %8, label %5

5:                                                ; preds = %1
  %6 = getelementptr inbounds nuw %"class.std::__cxx11::basic_string", ptr %3, i32 0, i32 2
  %7 = load i64, ptr %6, align 8, !tbaa !27
  call void @_ZNSt7__cxx1112basic_stringIcSt11char_traitsIcESaIcEE10_M_destroyEm(ptr noundef nonnull align 8 dereferenceable(32) %3, i64 noundef %7) #16
  br label %8

8:                                                ; preds = %5, %1
  ret void
}

; Function Attrs: mustprogress nounwind uwtable
define linkonce_odr hidden void @_ZNSt15__new_allocatorIcEC2Ev(ptr noundef nonnull align 1 dereferenceable(1) %0) unnamed_addr #3 comdat align 2 {
  %2 = alloca ptr, align 8
  store ptr %0, ptr %2, align 8, !tbaa !231
  ret void
}

; Function Attrs: mustprogress nounwind uwtable
define linkonce_odr hidden void @_ZNSt15__new_allocatorIcED2Ev(ptr noundef nonnull align 1 dereferenceable(1) %0) unnamed_addr #3 comdat align 2 {
  %2 = alloca ptr, align 8
  store ptr %0, ptr %2, align 8, !tbaa !231
  ret void
}

; Function Attrs: mustprogress nounwind uwtable
define available_externally void @_ZNSt7__cxx1112basic_stringIcSt11char_traitsIcESaIcEED2Ev(ptr noundef nonnull align 8 dereferenceable(32) %0) unnamed_addr #3 align 2 personality ptr @__gxx_personality_v0 {
  %2 = alloca ptr, align 8
  store ptr %0, ptr %2, align 8, !tbaa !17
  %3 = load ptr, ptr %2, align 8
  invoke void @_ZNSt7__cxx1112basic_stringIcSt11char_traitsIcESaIcEE10_M_disposeEv(ptr noundef nonnull align 8 dereferenceable(32) %3)
          to label %4 unwind label %6

4:                                                ; preds = %1
  %5 = getelementptr inbounds nuw %"class.std::__cxx11::basic_string", ptr %3, i32 0, i32 0
  call void @_ZNSt15__new_allocatorIcED2Ev(ptr noundef nonnull align 8 dereferenceable(8) %5) #16
  ret void

6:                                                ; preds = %1
  %7 = landingpad { ptr, i32 }
          catch ptr null
  %8 = extractvalue { ptr, i32 } %7, 0
  call void @__clang_call_terminate(ptr %8) #18
  unreachable
}

; Function Attrs: mustprogress nounwind uwtable
define available_externally void @_ZNSaIcEC2Ev(ptr noundef nonnull align 1 dereferenceable(1) %0) unnamed_addr #3 align 2 {
  %2 = alloca ptr, align 8
  store ptr %0, ptr %2, align 8, !tbaa !15
  %3 = load ptr, ptr %2, align 8
  call void @_ZNSt15__new_allocatorIcEC2Ev(ptr noundef nonnull align 1 dereferenceable(1) %3) #16
  ret void
}

; Function Attrs: inlinehint mustprogress nounwind uwtable
define internal void @_ZL8cvScalarv(ptr dead_on_unwind noalias writable sret(%struct.CvScalar) align 8 %0) #6 {
  call void @llvm.memset.p0.i64(ptr align 8 %0, i8 0, i64 32, i1 false)
  %2 = getelementptr inbounds nuw %struct.CvScalar, ptr %0, i32 0, i32 0
  %3 = getelementptr inbounds [4 x double], ptr %2, i64 0, i64 3
  store double 0.000000e+00, ptr %3, align 8, !tbaa !156
  %4 = getelementptr inbounds nuw %struct.CvScalar, ptr %0, i32 0, i32 0
  %5 = getelementptr inbounds [4 x double], ptr %4, i64 0, i64 2
  store double 0.000000e+00, ptr %5, align 8, !tbaa !156
  %6 = getelementptr inbounds nuw %struct.CvScalar, ptr %0, i32 0, i32 0
  %7 = getelementptr inbounds [4 x double], ptr %6, i64 0, i64 1
  store double 0.000000e+00, ptr %7, align 8, !tbaa !156
  %8 = getelementptr inbounds nuw %struct.CvScalar, ptr %0, i32 0, i32 0
  %9 = getelementptr inbounds [4 x double], ptr %8, i64 0, i64 0
  store double 0.000000e+00, ptr %9, align 8, !tbaa !156
  ret void
}

; Function Attrs: mustprogress uwtable
define void @cvGet1D(ptr dead_on_unwind noalias writable sret(%struct.CvScalar) align 8 %0, ptr noundef %1, i32 noundef %2) #0 personality ptr @__gxx_personality_v0 {
  %4 = alloca ptr, align 8
  %5 = alloca i32, align 4
  %6 = alloca i32, align 4
  %7 = alloca ptr, align 8
  %8 = alloca ptr, align 8
  %9 = alloca i32, align 4
  %10 = alloca %"class.std::__cxx11::basic_string", align 8
  %11 = alloca %"class.std::allocator", align 1
  %12 = alloca ptr, align 8
  %13 = alloca i32, align 4
  store ptr %1, ptr %4, align 8, !tbaa !3
  store i32 %2, ptr %5, align 4, !tbaa !7
  call void @_ZL8cvScalarv(ptr dead_on_unwind writable sret(%struct.CvScalar) align 8 %0)
  call void @llvm.lifetime.start.p0(i64 4, ptr %6) #16
  store i32 0, ptr %6, align 4, !tbaa !7
  call void @llvm.lifetime.start.p0(i64 8, ptr %7) #16
  %14 = load ptr, ptr %4, align 8, !tbaa !3
  %15 = icmp ne ptr %14, null
  br i1 %15, label %16, label %101

16:                                               ; preds = %3
  %17 = load ptr, ptr %4, align 8, !tbaa !3
  %18 = getelementptr inbounds nuw %struct.CvMat, ptr %17, i32 0, i32 0
  %19 = load i32, ptr %18, align 8, !tbaa !26
  %20 = and i32 %19, -65536
  %21 = icmp eq i32 %20, 1111621632
  br i1 %21, label %22, label %101

22:                                               ; preds = %16
  %23 = load ptr, ptr %4, align 8, !tbaa !3
  %24 = getelementptr inbounds nuw %struct.CvMat, ptr %23, i32 0, i32 6
  %25 = load i32, ptr %24, align 4, !tbaa !27
  %26 = icmp sgt i32 %25, 0
  br i1 %26, label %27, label %101

27:                                               ; preds = %22
  %28 = load ptr, ptr %4, align 8, !tbaa !3
  %29 = getelementptr inbounds nuw %struct.CvMat, ptr %28, i32 0, i32 5
  %30 = load i32, ptr %29, align 8, !tbaa !27
  %31 = icmp sgt i32 %30, 0
  br i1 %31, label %32, label %101

32:                                               ; preds = %27
  %33 = load ptr, ptr %4, align 8, !tbaa !3
  %34 = getelementptr inbounds nuw %struct.CvMat, ptr %33, i32 0, i32 4
  %35 = load ptr, ptr %34, align 8, !tbaa !27
  %36 = icmp ne ptr %35, null
  br i1 %36, label %37, label %101

37:                                               ; preds = %32
  %38 = load ptr, ptr %4, align 8, !tbaa !3
  %39 = getelementptr inbounds nuw %struct.CvMat, ptr %38, i32 0, i32 0
  %40 = load i32, ptr %39, align 8, !tbaa !26
  %41 = and i32 %40, 16384
  %42 = icmp ne i32 %41, 0
  br i1 %42, label %43, label %101

43:                                               ; preds = %37
  call void @llvm.lifetime.start.p0(i64 8, ptr %8) #16
  %44 = load ptr, ptr %4, align 8, !tbaa !3
  store ptr %44, ptr %8, align 8, !tbaa !21
  %45 = load ptr, ptr %8, align 8, !tbaa !21
  %46 = getelementptr inbounds nuw %struct.CvMat, ptr %45, i32 0, i32 0
  %47 = load i32, ptr %46, align 8, !tbaa !26
  %48 = and i32 %47, 4095
  store i32 %48, ptr %6, align 4, !tbaa !7
  call void @llvm.lifetime.start.p0(i64 4, ptr %9) #16
  %49 = load i32, ptr %6, align 4, !tbaa !7
  %50 = and i32 %49, 4088
  %51 = ashr i32 %50, 3
  %52 = add nsw i32 %51, 1
  %53 = load i32, ptr %6, align 4, !tbaa !7
  %54 = and i32 %53, 7
  %55 = mul nsw i32 %54, 4
  %56 = ashr i32 675553809, %55
  %57 = and i32 %56, 15
  %58 = mul nsw i32 %52, %57
  store i32 %58, ptr %9, align 4, !tbaa !7
  %59 = load i32, ptr %5, align 4, !tbaa !7
  %60 = load ptr, ptr %8, align 8, !tbaa !21
  %61 = getelementptr inbounds nuw %struct.CvMat, ptr %60, i32 0, i32 5
  %62 = load i32, ptr %61, align 8, !tbaa !27
  %63 = load ptr, ptr %8, align 8, !tbaa !21
  %64 = getelementptr inbounds nuw %struct.CvMat, ptr %63, i32 0, i32 6
  %65 = load i32, ptr %64, align 4, !tbaa !27
  %66 = add nsw i32 %62, %65
  %67 = sub nsw i32 %66, 1
  %68 = icmp uge i32 %59, %67
  br i1 %68, label %69, label %91

69:                                               ; preds = %43
  %70 = load i32, ptr %5, align 4, !tbaa !7
  %71 = load ptr, ptr %8, align 8, !tbaa !21
  %72 = getelementptr inbounds nuw %struct.CvMat, ptr %71, i32 0, i32 5
  %73 = load i32, ptr %72, align 8, !tbaa !27
  %74 = load ptr, ptr %8, align 8, !tbaa !21
  %75 = getelementptr inbounds nuw %struct.CvMat, ptr %74, i32 0, i32 6
  %76 = load i32, ptr %75, align 4, !tbaa !27
  %77 = mul nsw i32 %73, %76
  %78 = icmp uge i32 %70, %77
  br i1 %78, label %79, label %91

79:                                               ; preds = %69
  call void @llvm.lifetime.start.p0(i64 32, ptr %10) #16
  call void @llvm.lifetime.start.p0(i64 1, ptr %11) #16
  call void @_ZNSaIcEC2Ev(ptr noundef nonnull align 1 dereferenceable(1) %11) #16
  invoke void @_ZNSt7__cxx1112basic_stringIcSt11char_traitsIcESaIcEEC2EPKcRKS3_(ptr noundef nonnull align 8 dereferenceable(32) %10, ptr noundef @.str.42, ptr noundef nonnull align 1 dereferenceable(1) %11)
          to label %80 unwind label %82

80:                                               ; preds = %79
  invoke void @_ZN2cv5errorEiRKNSt7__cxx1112basic_stringIcSt11char_traitsIcESaIcEEEPKcS9_i(i32 noundef -211, ptr noundef nonnull align 8 dereferenceable(32) %10, ptr noundef @__func__.cvGet1D, ptr noundef @.str.1, i32 noundef 1938) #17
          to label %81 unwind label %86

81:                                               ; preds = %80
  unreachable

82:                                               ; preds = %79
  %83 = landingpad { ptr, i32 }
          cleanup
  %84 = extractvalue { ptr, i32 } %83, 0
  store ptr %84, ptr %12, align 8
  %85 = extractvalue { ptr, i32 } %83, 1
  store i32 %85, ptr %13, align 4
  br label %90

86:                                               ; preds = %80
  %87 = landingpad { ptr, i32 }
          cleanup
  %88 = extractvalue { ptr, i32 } %87, 0
  store ptr %88, ptr %12, align 8
  %89 = extractvalue { ptr, i32 } %87, 1
  store i32 %89, ptr %13, align 4
  call void @_ZNSt7__cxx1112basic_stringIcSt11char_traitsIcESaIcEED2Ev(ptr noundef nonnull align 8 dereferenceable(32) %10) #16
  br label %90

90:                                               ; preds = %86, %82
  call void @_ZNSt15__new_allocatorIcED2Ev(ptr noundef nonnull align 1 dereferenceable(1) %11) #16
  call void @llvm.lifetime.end.p0(i64 1, ptr %11) #16
  call void @llvm.lifetime.end.p0(i64 32, ptr %10) #16
  call void @llvm.lifetime.end.p0(i64 4, ptr %9) #16
  call void @llvm.lifetime.end.p0(i64 8, ptr %8) #16
  call void @llvm.lifetime.end.p0(i64 8, ptr %7) #16
  call void @llvm.lifetime.end.p0(i64 4, ptr %6) #16
  br label %130

91:                                               ; preds = %69, %43
  %92 = load ptr, ptr %8, align 8, !tbaa !21
  %93 = getelementptr inbounds nuw %struct.CvMat, ptr %92, i32 0, i32 4
  %94 = load ptr, ptr %93, align 8, !tbaa !27
  %95 = load i32, ptr %5, align 4, !tbaa !7
  %96 = sext i32 %95 to i64
  %97 = load i32, ptr %9, align 4, !tbaa !7
  %98 = sext i32 %97 to i64
  %99 = mul i64 %96, %98
  %100 = getelementptr inbounds nuw i8, ptr %94, i64 %99
  store ptr %100, ptr %7, align 8, !tbaa !19
  call void @llvm.lifetime.end.p0(i64 4, ptr %9) #16
  call void @llvm.lifetime.end.p0(i64 8, ptr %8) #16
  br label %123

101:                                              ; preds = %37, %32, %27, %22, %16, %3
  %102 = load ptr, ptr %4, align 8, !tbaa !3
  %103 = icmp ne ptr %102, null
  br i1 %103, label %104, label %115

104:                                              ; preds = %101
  %105 = load ptr, ptr %4, align 8, !tbaa !3
  %106 = getelementptr inbounds nuw %struct.CvSparseMat, ptr %105, i32 0, i32 0
  %107 = load i32, ptr %106, align 8, !tbaa !97
  %108 = and i32 %107, -65536
  %109 = icmp eq i32 %108, 1111752704
  br i1 %109, label %110, label %115

110:                                              ; preds = %104
  %111 = load ptr, ptr %4, align 8, !tbaa !3
  %112 = getelementptr inbounds nuw %struct.CvSparseMat, ptr %111, i32 0, i32 1
  %113 = load i32, ptr %112, align 4, !tbaa !100
  %114 = icmp sgt i32 %113, 1
  br i1 %114, label %115, label %119

115:                                              ; preds = %110, %104, %101
  %116 = load ptr, ptr %4, align 8, !tbaa !3
  %117 = load i32, ptr %5, align 4, !tbaa !7
  %118 = call ptr @cvPtr1D(ptr noundef %116, i32 noundef %117, ptr noundef %6)
  store ptr %118, ptr %7, align 8, !tbaa !19
  br label %122

119:                                              ; preds = %110
  %120 = load ptr, ptr %4, align 8, !tbaa !3
  %121 = call noundef ptr @_ZL13icvGetNodePtrP11CvSparseMatPKiPiiPj(ptr noundef %120, ptr noundef %5, ptr noundef %6, i32 noundef 0, ptr noundef null)
  store ptr %121, ptr %7, align 8, !tbaa !19
  br label %122

122:                                              ; preds = %119, %115
  br label %123

123:                                              ; preds = %122, %91
  %124 = load ptr, ptr %7, align 8, !tbaa !19
  %125 = icmp ne ptr %124, null
  br i1 %125, label %126, label %129

126:                                              ; preds = %123
  %127 = load ptr, ptr %7, align 8, !tbaa !19
  %128 = load i32, ptr %6, align 4, !tbaa !7
  call void @cvRawDataToScalar(ptr noundef %127, i32 noundef %128, ptr noundef %0)
  br label %129

129:                                              ; preds = %126, %123
  call void @llvm.lifetime.end.p0(i64 8, ptr %7) #16
  call void @llvm.lifetime.end.p0(i64 4, ptr %6) #16
  ret void

130:                                              ; preds = %90
  %131 = load ptr, ptr %12, align 8
  %132 = load i32, ptr %13, align 4
  %133 = insertvalue { ptr, i32 } poison, ptr %131, 0
  %134 = insertvalue { ptr, i32 } %133, i32 %132, 1
  resume { ptr, i32 } %134
}